target datalayout = "e-m:e-p270:32:32-p271:32:32-p272:64:64-i64:64-i128:128-f80:128-n8:16:32:64-S128"
target triple = "x86_64-unknown-linux-gnu"

%struct.MemoryRegion = type { %struct.Object, i8, i8, i8, i8, i8, i8, i8, i8, i8, i8, ptr, ptr, ptr, ptr, ptr, ptr, i32, i128, i64, ptr, i64, i8, i8, i8, i8, i8, ptr, i64, i32, %union.anon, %union.anon.0, %union.anon.1, ptr, i32, ptr, ptr, i8 }
%struct.Object = type { ptr, ptr, ptr, i32, ptr }
%union.anon = type { %struct.QTailQLink }
%struct.QTailQLink = type { ptr, ptr }
%union.anon.0 = type { %struct.QTailQLink }
%union.anon.1 = type { %struct.QTailQLink }
%struct.VFIOPCIDevice = type { %struct.PCIDevice, %struct.VFIODevice, %struct.VFIOINTx, i32, ptr, i64, i32, i64, ptr, i32, ptr, ptr, i32, i32, [6 x %struct.VFIOBAR], ptr, ptr, %struct.PCIHostDeviceAddress, %struct.QemuUUID, %struct.EventNotifier, %struct.EventNotifier, ptr, i32, i32, i32, i32, i32, i32, i32, i32, i32, i32, i32, i8, i8, i8, i8, i8, i8, i8, i8, i8, i8, i8, i8, i8, i8, i32, i8, i8, ptr, %struct.Notifier }
%struct.PCIDevice = type { %struct.DeviceState, i8, i8, ptr, ptr, ptr, ptr, ptr, i32, %struct.PCIReqIDCache, [64 x i8], [7 x %struct.PCIIORegion], %struct.AddressSpace, %struct.MemoryRegion, %struct.MemoryRegion, ptr, ptr, [3 x ptr], i8, i8, i32, i8, i32, ptr, ptr, ptr, ptr, ptr, ptr, %struct.MemoryRegion, %struct.MemoryRegion, %struct.MemoryRegion, ptr, i8, i32, i8, %struct.PCIExpressDevice, ptr, ptr, i32, i8, %struct.MemoryRegion, i32, ptr, ptr, ptr, ptr, ptr, i32 }
%struct.DeviceState = type { %struct.Object, ptr, ptr, i8, i8, i64, ptr, i32, i8, ptr, %struct.NamedGPIOListHead, %struct.NamedClockListHead, %struct.BusStateHead, i32, i32, i32, %struct.ResettableState, ptr, %struct.MemReentrancyGuard }
%struct.NamedGPIOListHead = type { ptr }
%struct.NamedClockListHead = type { ptr }
%struct.BusStateHead = type { ptr }
%struct.ResettableState = type { i32, i8, i8 }
%struct.MemReentrancyGuard = type { i8 }
%struct.PCIReqIDCache = type { ptr, i32 }
%struct.PCIIORegion = type { i64, i64, i8, ptr, ptr }
%struct.AddressSpace = type { %struct.rcu_head, ptr, ptr, ptr, i32, i32, ptr, %union.anon.4, %union.anon.5 }
%struct.rcu_head = type { ptr, ptr }
%union.anon.4 = type { %struct.QTailQLink }
%union.anon.5 = type { %struct.QTailQLink }
%struct.PCIExpressDevice = type { i8, i8, i8, i16, %struct.PCIEAERLog, i16, i16, i16, %struct.PCIESriovPF, %struct.PCIESriovVF }
%struct.PCIEAERLog = type { i16, i16, ptr }
%struct.PCIESriovPF = type { i16, [7 x i8], ptr, ptr }
%struct.PCIESriovVF = type { ptr, i16 }
%struct.VFIODevice = type { %struct.anon.6, %struct.anon.7, %struct.anon.8, ptr, ptr, ptr, ptr, ptr, i32, i32, i8, i8, i8, i8, i32, ptr, i32, i32, i32, ptr, ptr, i32, i8, i8 }
%struct.anon.6 = type { ptr, ptr }
%struct.anon.7 = type { ptr, ptr }
%struct.anon.8 = type { ptr, ptr }
%struct.VFIOINTx = type { i8, i8, i8, %struct.EventNotifier, %struct.EventNotifier, %struct.PCIINTxRoute, i32, ptr }
%struct.PCIINTxRoute = type { i32, i32 }
%struct.VFIOBAR = type { %struct.VFIORegion, ptr, i64, i8, i8, i8, %struct.anon.9 }
%struct.VFIORegion = type { ptr, i64, ptr, i64, i32, i32, ptr, i8 }
%struct.anon.9 = type { ptr }
%struct.PCIHostDeviceAddress = type { i32, i32, i32, i32 }
%struct.QemuUUID = type { %union.anon.10 }
%union.anon.10 = type { %struct.anon.11 }
%struct.anon.11 = type { i32, i16, i16, i8, i8, [6 x i8] }
%struct.EventNotifier = type { i32, i32, i8 }
%struct.Notifier = type { ptr, %struct.anon.12 }
%struct.anon.12 = type { ptr, ptr }

@.str.42 = private unnamed_addr constant [10 x i8] c"vfio %s: \00", align 1
@.str.224 = private unnamed_addr constant [56 x i8] c"vfio: Unable to init event notifier for error detection\00", align 1

; Function Attrs: nounwind sspstrong uwtable
define internal void @vfio_register_err_notifier(ptr noundef %vdev) #0 {
entry:
  %vdev.addr = alloca ptr, align 8
  %err = alloca ptr, align 8
  %fd = alloca i32, align 4
  store ptr %vdev, ptr %vdev.addr, align 8
  store ptr null, ptr %err, align 8
  %0 = load ptr, ptr %vdev.addr, align 8
  %pci_aer = getelementptr inbounds %struct.VFIOPCIDevice, ptr %0, i32 0, i32 35
  %1 = load i8, ptr %pci_aer, align 2
  %tobool = trunc i8 %1 to i1
  br i1 %tobool, label %if.end, label %if.then

if.then:                                          ; preds = %entry
  br label %if.end13

if.end:                                           ; preds = %entry
  %2 = load ptr, ptr %vdev.addr, align 8
  %err_notifier = getelementptr inbounds %struct.VFIOPCIDevice, ptr %2, i32 0, i32 19
  %call = call i32 @event_notifier_init(ptr noundef %err_notifier, i32 noundef 0)
  %tobool1 = icmp ne i32 %call, 0
  br i1 %tobool1, label %if.then2, label %if.end4

if.then2:                                         ; preds = %if.end
  call void (ptr, ...) @error_report(ptr noundef @.str.224)
  %3 = load ptr, ptr %vdev.addr, align 8
  %pci_aer3 = getelementptr inbounds %struct.VFIOPCIDevice, ptr %3, i32 0, i32 35
  store i8 0, ptr %pci_aer3, align 2
  br label %if.end13

if.end4:                                          ; preds = %if.end
  %4 = load ptr, ptr %vdev.addr, align 8
  %err_notifier5 = getelementptr inbounds %struct.VFIOPCIDevice, ptr %4, i32 0, i32 19
  %call6 = call i32 @event_notifier_get_fd(ptr noundef %err_notifier5)
  store i32 %call6, ptr %fd, align 4
  %5 = load i32, ptr %fd, align 4
  %6 = load ptr, ptr %vdev.addr, align 8
  call void @qemu_set_fd_handler(i32 noundef %5, ptr noundef @vfio_err_notifier_handler, ptr noundef null, ptr noundef %6)
  %7 = load ptr, ptr %vdev.addr, align 8
  %vbasedev = getelementptr inbounds %struct.VFIOPCIDevice, ptr %7, i32 0, i32 1
  %8 = load i32, ptr %fd, align 4
  %call7 = call i32 @vfio_set_irq_signaling(ptr noundef %vbasedev, i32 noundef 3, i32 noundef 0, i32 noundef 32, i32 noundef %8, ptr noundef %err)
  %tobool8 = icmp ne i32 %call7, 0
  br i1 %tobool8, label %if.then9, label %if.end13

if.then9:                                         ; preds = %if.end4
  %9 = load ptr, ptr %err, align 8
  %10 = load ptr, ptr %vdev.addr, align 8
  %vbasedev10 = getelementptr inbounds %struct.VFIOPCIDevice, ptr %10, i32 0, i32 1
  %name = getelementptr inbounds %struct.VFIODevice, ptr %vbasedev10, i32 0, i32 6
  %11 = load ptr, ptr %name, align 8
  call void (ptr, ptr, ...) @error_reportf_err(ptr noundef %9, ptr noundef @.str.42, ptr noundef %11)
  %12 = load i32, ptr %fd, align 4
  %13 = load ptr, ptr %vdev.addr, align 8
  call void @qemu_set_fd_handler(i32 noundef %12, ptr noundef null, ptr noundef null, ptr noundef %13)
  %14 = load ptr, ptr %vdev.addr, align 8
  %err_notifier11 = getelementptr inbounds %struct.VFIOPCIDevice, ptr %14, i32 0, i32 19
  call void @event_notifier_cleanup(ptr noundef %err_notifier11)
  %15 = load ptr, ptr %vdev.addr, align 8
  %pci_aer12 = getelementptr inbounds %struct.VFIOPCIDevice, ptr %15, i32 0, i32 35
  store i8 0, ptr %pci_aer12, align 2
  br label %if.end13

if.end13:                                         ; preds = %if.then9, %if.end4, %if.then2, %if.then
  ret void
}