; Function Attrs: nounwind sspstrong uwtable
define internal fastcc void @vfio_register_err_notifier(ptr noundef %vdev) unnamed_addr #0 {
entry:
  %err = alloca ptr, align 8
  store ptr null, ptr %err, align 8
  %pci_aer = getelementptr inbounds nuw i8, ptr %vdev, i64 3542
  %0 = load i8, ptr %pci_aer, align 2
  %tobool = trunc i8 %0 to i1
  br i1 %tobool, label %if.end, label %if.end13

if.end:                                           ; preds = %entry
  %err_notifier = getelementptr inbounds nuw i8, ptr %vdev, i64 3464
  %call = tail call i32 @event_notifier_init(ptr noundef nonnull %err_notifier, i32 noundef 0) #23
  %tobool1.not = icmp eq i32 %call, 0
  br i1 %tobool1.not, label %if.end4, label %if.then2

if.then2:                                         ; preds = %if.end
  tail call void (ptr, ...) @error_report(ptr noundef nonnull @.str.224) #23
  br label %if.end13.sink.split

if.end4:                                          ; preds = %if.end
  %call6 = tail call i32 @event_notifier_get_fd(ptr noundef nonnull %err_notifier) #23
  tail call void @qemu_set_fd_handler(i32 noundef %call6, ptr noundef nonnull @vfio_err_notifier_handler, ptr noundef null, ptr noundef nonnull %vdev) #23
  %vbasedev = getelementptr inbounds nuw i8, ptr %vdev, i64 2608
  %call7 = call i32 @vfio_set_irq_signaling(ptr noundef nonnull %vbasedev, i32 noundef 3, i32 noundef 0, i32 noundef 32, i32 noundef %call6, ptr noundef nonnull %err) #23
  %tobool8.not = icmp eq i32 %call7, 0
  br i1 %tobool8.not, label %if.end13, label %if.then9

if.then9:                                         ; preds = %if.end4
  %1 = load ptr, ptr %err, align 8
  %name = getelementptr inbounds nuw i8, ptr %vdev, i64 2680
  %2 = load ptr, ptr %name, align 8
  call void (ptr, ptr, ...) @error_reportf_err(ptr noundef %1, ptr noundef nonnull @.str.42, ptr noundef %2) #23
  call void @qemu_set_fd_handler(i32 noundef %call6, ptr noundef null, ptr noundef null, ptr noundef nonnull %vdev) #23
  call void @event_notifier_cleanup(ptr noundef nonnull %err_notifier) #23
  br label %if.end13.sink.split

if.end13.sink.split:                              ; preds = %if.then2, %if.then9
  store i8 0, ptr %pci_aer, align 2
  br label %if.end13

if.end13:                                         ; preds = %if.end13.sink.split, %entry, %if.end4
  ret void
}